target datalayout = "e-m:e-p270:32:32-p271:32:32-p272:64:64-i64:64-i128:128-f80:128-n8:16:32:64-S128"
target triple = "x86_64-pc-linux-gnu"

%struct._object = type { %union.anon, ptr }
%union.anon = type { i64 }
%struct.PyVarObject = type { %struct._object, i64 }
%struct.arraydescr = type { i8, i32, ptr, ptr, ptr, ptr, i32, i32 }
%struct.arrayobject = type { %struct.PyVarObject, ptr, i64, ptr, ptr, i64 }

@PyExc_BufferError = external global ptr, align 8
@.str.57 = private unnamed_addr constant [49 x i8] c"cannot resize an array that is exporting buffers\00", align 1

; Function Attrs: inlinehint nounwind uwtable
define internal void @Py_SET_SIZE(ptr noundef %0, i64 noundef %1) #3 {
  %3 = alloca ptr, align 8
  %4 = alloca i64, align 8
  store ptr %0, ptr %3, align 8, !tbaa !8
  store i64 %1, ptr %4, align 8, !tbaa !21
  %5 = load i64, ptr %4, align 8, !tbaa !21
  %6 = load ptr, ptr %3, align 8, !tbaa !8
  %7 = getelementptr inbounds nuw %struct.PyVarObject, ptr %6, i32 0, i32 1
  store i64 %5, ptr %7, align 8, !tbaa !62
  ret void
}

; Function Attrs: inlinehint nounwind uwtable
define internal i64 @Py_SIZE(ptr noundef %0) #3 {
  %2 = alloca ptr, align 8
  store ptr %0, ptr %2, align 8, !tbaa !3
  %3 = load ptr, ptr %2, align 8, !tbaa !3
  %4 = getelementptr inbounds nuw %struct.PyVarObject, ptr %3, i32 0, i32 1
  %5 = load i64, ptr %4, align 8, !tbaa !62
  ret i64 %5
}

; Function Attrs: nounwind uwtable
define internal i32 @array_resize(ptr noundef %0, i64 noundef %1) #0 {
  %3 = alloca i32, align 4
  %4 = alloca ptr, align 8
  %5 = alloca i64, align 8
  %6 = alloca ptr, align 8
  %7 = alloca i64, align 8
  %8 = alloca i32, align 4
  store ptr %0, ptr %4, align 8, !tbaa !68
  store i64 %1, ptr %5, align 8, !tbaa !21
  call void @llvm.lifetime.start.p0(i64 8, ptr %6) #8
  call void @llvm.lifetime.start.p0(i64 8, ptr %7) #8
  %9 = load ptr, ptr %4, align 8, !tbaa !68
  %10 = getelementptr inbounds nuw %struct.arrayobject, ptr %9, i32 0, i32 5
  %11 = load i64, ptr %10, align 8, !tbaa !105
  %12 = icmp sgt i64 %11, 0
  br i1 %12, label %13, label %20

13:                                               ; preds = %2
  %14 = load i64, ptr %5, align 8, !tbaa !21
  %15 = load ptr, ptr %4, align 8, !tbaa !68
  %16 = call i64 @Py_SIZE(ptr noundef %15)
  %17 = icmp ne i64 %14, %16
  br i1 %17, label %18, label %20

18:                                               ; preds = %13
  %19 = load ptr, ptr @PyExc_BufferError, align 8, !tbaa !3
  call void @PyErr_SetString(ptr noundef %19, ptr noundef @.str.57)
  store i32 -1, ptr %3, align 4
  store i32 1, ptr %8, align 4
  br label %115

20:                                               ; preds = %13, %2
  %21 = load ptr, ptr %4, align 8, !tbaa !68
  %22 = getelementptr inbounds nuw %struct.arrayobject, ptr %21, i32 0, i32 2
  %23 = load i64, ptr %22, align 8, !tbaa !101
  %24 = load i64, ptr %5, align 8, !tbaa !21
  %25 = icmp sge i64 %23, %24
  br i1 %25, label %26, label %40

26:                                               ; preds = %20
  %27 = load ptr, ptr %4, align 8, !tbaa !68
  %28 = call i64 @Py_SIZE(ptr noundef %27)
  %29 = load i64, ptr %5, align 8, !tbaa !21
  %30 = add i64 %29, 16
  %31 = icmp slt i64 %28, %30
  br i1 %31, label %32, label %40

32:                                               ; preds = %26
  %33 = load ptr, ptr %4, align 8, !tbaa !68
  %34 = getelementptr inbounds nuw %struct.arrayobject, ptr %33, i32 0, i32 1
  %35 = load ptr, ptr %34, align 8, !tbaa !70
  %36 = icmp ne ptr %35, null
  br i1 %36, label %37, label %40

37:                                               ; preds = %32
  %38 = load ptr, ptr %4, align 8, !tbaa !68
  %39 = load i64, ptr %5, align 8, !tbaa !21
  call void @Py_SET_SIZE(ptr noundef %38, i64 noundef %39)
  store i32 0, ptr %3, align 4
  store i32 1, ptr %8, align 4
  br label %115

40:                                               ; preds = %32, %26, %20
  %41 = load i64, ptr %5, align 8, !tbaa !21
  %42 = icmp eq i64 %41, 0
  br i1 %42, label %43, label %52

43:                                               ; preds = %40
  %44 = load ptr, ptr %4, align 8, !tbaa !68
  %45 = getelementptr inbounds nuw %struct.arrayobject, ptr %44, i32 0, i32 1
  %46 = load ptr, ptr %45, align 8, !tbaa !70
  call void @PyMem_Free(ptr noundef %46)
  %47 = load ptr, ptr %4, align 8, !tbaa !68
  %48 = getelementptr inbounds nuw %struct.arrayobject, ptr %47, i32 0, i32 1
  store ptr null, ptr %48, align 8, !tbaa !70
  %49 = load ptr, ptr %4, align 8, !tbaa !68
  call void @Py_SET_SIZE(ptr noundef %49, i64 noundef 0)
  %50 = load ptr, ptr %4, align 8, !tbaa !68
  %51 = getelementptr inbounds nuw %struct.arrayobject, ptr %50, i32 0, i32 2
  store i64 0, ptr %51, align 8, !tbaa !101
  store i32 0, ptr %3, align 4
  store i32 1, ptr %8, align 4
  br label %115

52:                                               ; preds = %40
  %53 = load i64, ptr %5, align 8, !tbaa !21
  %54 = ashr i64 %53, 4
  %55 = load ptr, ptr %4, align 8, !tbaa !68
  %56 = call i64 @Py_SIZE(ptr noundef %55)
  %57 = icmp slt i64 %56, 8
  %58 = select i1 %57, i32 3, i32 7
  %59 = sext i32 %58 to i64
  %60 = add i64 %54, %59
  %61 = load i64, ptr %5, align 8, !tbaa !21
  %62 = add i64 %60, %61
  store i64 %62, ptr %7, align 8, !tbaa !21
  %63 = load ptr, ptr %4, align 8, !tbaa !68
  %64 = getelementptr inbounds nuw %struct.arrayobject, ptr %63, i32 0, i32 1
  %65 = load ptr, ptr %64, align 8, !tbaa !70
  store ptr %65, ptr %6, align 8, !tbaa !47
  %66 = load i64, ptr %7, align 8, !tbaa !21
  %67 = load ptr, ptr %4, align 8, !tbaa !68
  %68 = getelementptr inbounds nuw %struct.arrayobject, ptr %67, i32 0, i32 3
  %69 = load ptr, ptr %68, align 8, !tbaa !99
  %70 = getelementptr inbounds nuw %struct.arraydescr, ptr %69, i32 0, i32 1
  %71 = load i32, ptr %70, align 4, !tbaa !52
  %72 = sext i32 %71 to i64
  %73 = udiv i64 -1, %72
  %74 = icmp ule i64 %66, %73
  br i1 %74, label %75, label %100

75:                                               ; preds = %52
  %76 = load i64, ptr %7, align 8, !tbaa !21
  %77 = load ptr, ptr %4, align 8, !tbaa !68
  %78 = getelementptr inbounds nuw %struct.arrayobject, ptr %77, i32 0, i32 3
  %79 = load ptr, ptr %78, align 8, !tbaa !99
  %80 = getelementptr inbounds nuw %struct.arraydescr, ptr %79, i32 0, i32 1
  %81 = load i32, ptr %80, align 4, !tbaa !52
  %82 = sext i32 %81 to i64
  %83 = mul i64 %76, %82
  %84 = icmp ugt i64 %83, 9223372036854775807
  br i1 %84, label %85, label %86

85:                                               ; preds = %75
  br label %98

86:                                               ; preds = %75
  %87 = load ptr, ptr %6, align 8, !tbaa !47
  %88 = load i64, ptr %7, align 8, !tbaa !21
  %89 = load ptr, ptr %4, align 8, !tbaa !68
  %90 = getelementptr inbounds nuw %struct.arrayobject, ptr %89, i32 0, i32 3
  %91 = load ptr, ptr %90, align 8, !tbaa !99
  %92 = getelementptr inbounds nuw %struct.arraydescr, ptr %91, i32 0, i32 1
  %93 = load i32, ptr %92, align 4, !tbaa !52
  %94 = sext i32 %93 to i64
  %95 = mul i64 %88, %94
  %96 = mul i64 %95, 1
  %97 = call ptr @PyMem_Realloc(ptr noundef %87, i64 noundef %96)
  br label %98

98:                                               ; preds = %86, %85
  %99 = phi ptr [ null, %85 ], [ %97, %86 ]
  store ptr %99, ptr %6, align 8, !tbaa !47
  br label %101

100:                                              ; preds = %52
  store ptr null, ptr %6, align 8, !tbaa !47
  br label %101

101:                                              ; preds = %100, %98
  %102 = load ptr, ptr %6, align 8, !tbaa !47
  %103 = icmp eq ptr %102, null
  br i1 %103, label %104, label %106

104:                                              ; preds = %101
  %105 = call ptr @PyErr_NoMemory()
  store i32 -1, ptr %3, align 4
  store i32 1, ptr %8, align 4
  br label %115

106:                                              ; preds = %101
  %107 = load ptr, ptr %6, align 8, !tbaa !47
  %108 = load ptr, ptr %4, align 8, !tbaa !68
  %109 = getelementptr inbounds nuw %struct.arrayobject, ptr %108, i32 0, i32 1
  store ptr %107, ptr %109, align 8, !tbaa !70
  %110 = load ptr, ptr %4, align 8, !tbaa !68
  %111 = load i64, ptr %5, align 8, !tbaa !21
  call void @Py_SET_SIZE(ptr noundef %110, i64 noundef %111)
  %112 = load i64, ptr %7, align 8, !tbaa !21
  %113 = load ptr, ptr %4, align 8, !tbaa !68
  %114 = getelementptr inbounds nuw %struct.arrayobject, ptr %113, i32 0, i32 2
  store i64 %112, ptr %114, align 8, !tbaa !101
  store i32 0, ptr %3, align 4
  store i32 1, ptr %8, align 4
  br label %115

115:                                              ; preds = %106, %104, %43, %37, %18
  call void @llvm.lifetime.end.p0(i64 8, ptr %7) #8
  call void @llvm.lifetime.end.p0(i64 8, ptr %6) #8
  %116 = load i32, ptr %3, align 4
  ret i32 %116
}