; Function Attrs: nounwind uwtable
define internal fastcc range(i32 -1, 1) i32 @array_resize(ptr noundef captures(none) %0, i64 noundef %1) unnamed_addr #0 {
  %3 = getelementptr inbounds nuw i8, ptr %0, i64 56
  %4 = load i64, ptr %3, align 8, !tbaa !83
  %5 = icmp sgt i64 %4, 0
  br i1 %5, label %6, label %10

6:                                                ; preds = %2
  %7 = getelementptr i8, ptr %0, i64 16
  %.val41 = load i64, ptr %7, align 8, !tbaa !40
  %.not = icmp eq i64 %1, %.val41
  br i1 %.not, label %10, label %8

8:                                                ; preds = %6
  %9 = load ptr, ptr @PyExc_BufferError, align 8, !tbaa !18
  tail call void @PyErr_SetString(ptr noundef %9, ptr noundef nonnull @.str.57) #11
  br label %48

10:                                               ; preds = %6, %2
  %11 = getelementptr inbounds nuw i8, ptr %0, i64 32
  %12 = load i64, ptr %11, align 8, !tbaa !79
  %.not37 = icmp slt i64 %12, %1
  br i1 %.not37, label %21, label %13

13:                                               ; preds = %10
  %14 = getelementptr i8, ptr %0, i64 16
  %.val40 = load i64, ptr %14, align 8, !tbaa !40
  %15 = add i64 %1, 16
  %16 = icmp slt i64 %.val40, %15
  br i1 %16, label %17, label %21

17:                                               ; preds = %13
  %18 = getelementptr inbounds nuw i8, ptr %0, i64 24
  %19 = load ptr, ptr %18, align 8, !tbaa !53
  %.not38 = icmp eq ptr %19, null
  br i1 %.not38, label %21, label %20

20:                                               ; preds = %17
  store i64 %1, ptr %14, align 8, !tbaa !40
  br label %48

21:                                               ; preds = %17, %13, %10
  %22 = icmp eq i64 %1, 0
  br i1 %22, label %23, label %27

23:                                               ; preds = %21
  %24 = getelementptr inbounds nuw i8, ptr %0, i64 24
  %25 = load ptr, ptr %24, align 8, !tbaa !53
  tail call void @PyMem_Free(ptr noundef %25) #11
  %26 = getelementptr inbounds nuw i8, ptr %0, i64 16
  tail call void @llvm.memset.p0.i64(ptr noundef nonnull align 8 dereferenceable(24) %26, i8 0, i64 24, i1 false)
  br label %48

27:                                               ; preds = %21
  %28 = ashr i64 %1, 4
  %29 = getelementptr i8, ptr %0, i64 16
  %.val = load i64, ptr %29, align 8, !tbaa !40
  %.inv = icmp sgt i64 %.val, 7
  %30 = select i1 %.inv, i64 7, i64 3
  %31 = add i64 %28, %1
  %32 = add i64 %31, %30
  %33 = getelementptr inbounds nuw i8, ptr %0, i64 24
  %34 = load ptr, ptr %33, align 8, !tbaa !53
  %35 = getelementptr inbounds nuw i8, ptr %0, i64 40
  %36 = load ptr, ptr %35, align 8, !tbaa !76
  %37 = getelementptr inbounds nuw i8, ptr %36, i64 4
  %38 = load i32, ptr %37, align 4, !tbaa !49
  %39 = sext i32 %38 to i64
  %mul = tail call { i64, i1 } @llvm.umul.with.overflow.i64(i64 %39, i64 %32)
  %mul.ov = extractvalue { i64, i1 } %mul, 1
  br i1 %mul.ov, label %.thread, label %40

40:                                               ; preds = %27
  %41 = mul i64 %32, %39
  %42 = icmp slt i64 %41, 0
  br i1 %42, label %.thread, label %43

43:                                               ; preds = %40
  %44 = tail call ptr @PyMem_Realloc(ptr noundef %34, i64 noundef %41) #11
  %45 = icmp eq ptr %44, null
  br i1 %45, label %.thread, label %47

.thread:                                          ; preds = %27, %40, %43
  %46 = tail call ptr @PyErr_NoMemory() #11
  br label %48

47:                                               ; preds = %43
  store ptr %44, ptr %33, align 8, !tbaa !53
  store i64 %1, ptr %29, align 8, !tbaa !40
  store i64 %32, ptr %11, align 8, !tbaa !79
  br label %48

48:                                               ; preds = %47, %.thread, %23, %20, %8
  %.0 = phi i32 [ -1, %8 ], [ 0, %20 ], [ 0, %23 ], [ -1, %.thread ], [ 0, %47 ]
  ret i32 %.0
}